target datalayout = "e-m:e-p270:32:32-p271:32:32-p272:64:64-i64:64-i128:128-f80:128-n8:16:32:64-S128"
target triple = "x86_64-pc-linux-gnu"

%class.QString = type { %struct.QArrayDataPointer }
%struct.QArrayDataPointer = type { ptr, ptr, i64 }
%class.QObject = type { ptr, %class.QScopedPointer }
%class.QScopedPointer = type { ptr }
%class.FunnelStatistics = type { %class.QObject, ptr, ptr, ptr, %class.QByteArray, %class.QString }
%class.QByteArray = type { %struct.QArrayDataPointer.4 }
%struct.QArrayDataPointer.4 = type { ptr, ptr, i64 }
%struct._funnel_ops_id_t = type { ptr }
%struct._funnel_ops_t = type { ptr, ptr, ptr, ptr, ptr, ptr, ptr, ptr, ptr, ptr, ptr, ptr, ptr, ptr, ptr, ptr, ptr, ptr, ptr, ptr, ptr, ptr, ptr, ptr, ptr, ptr, ptr, ptr, ptr }

@_ZTV16FunnelStatistics = external unnamed_addr constant { [14 x ptr] }, align 8

; Function Attrs: mustprogress nounwind uwtable
define linkonce_odr void @_ZN17QArrayDataPointerIDsEC2Ev(ptr noundef nonnull align 8 dereferenceable(24) %0) unnamed_addr #2 comdat align 2 {
  %2 = alloca ptr, align 8
  store ptr %0, ptr %2, align 8
  %3 = load ptr, ptr %2, align 8
  %4 = getelementptr inbounds %struct.QArrayDataPointer, ptr %3, i32 0, i32 0
  store ptr null, ptr %4, align 8
  %5 = getelementptr inbounds %struct.QArrayDataPointer, ptr %3, i32 0, i32 1
  store ptr null, ptr %5, align 8
  %6 = getelementptr inbounds %struct.QArrayDataPointer, ptr %3, i32 0, i32 2
  store i64 0, ptr %6, align 8
  ret void
}

; Function Attrs: mustprogress nounwind uwtable
define linkonce_odr void @_ZN17QArrayDataPointerIcEC2Ev(ptr noundef nonnull align 8 dereferenceable(24) %0) unnamed_addr #2 comdat align 2 {
  %2 = alloca ptr, align 8
  store ptr %0, ptr %2, align 8
  %3 = load ptr, ptr %2, align 8
  %4 = getelementptr inbounds %struct.QArrayDataPointer.4, ptr %3, i32 0, i32 0
  store ptr null, ptr %4, align 8
  %5 = getelementptr inbounds %struct.QArrayDataPointer.4, ptr %3, i32 0, i32 1
  store ptr null, ptr %5, align 8
  %6 = getelementptr inbounds %struct.QArrayDataPointer.4, ptr %3, i32 0, i32 2
  store i64 0, ptr %6, align 8
  ret void
}

; Function Attrs: mustprogress nounwind uwtable
define linkonce_odr void @_ZN7QStringC2Ev(ptr noundef nonnull align 8 dereferenceable(24) %0) unnamed_addr #2 comdat align 2 {
  %2 = alloca ptr, align 8
  store ptr %0, ptr %2, align 8
  %3 = load ptr, ptr %2, align 8
  %4 = getelementptr inbounds %class.QString, ptr %3, i32 0, i32 0
  call void @_ZN17QArrayDataPointerIDsEC2Ev(ptr noundef nonnull align 8 dereferenceable(24) %4) #8
  ret void
}

; Function Attrs: mustprogress nounwind uwtable
define linkonce_odr void @_ZN10QByteArrayC2Ev(ptr noundef nonnull align 8 dereferenceable(24) %0) unnamed_addr #2 comdat align 2 {
  %2 = alloca ptr, align 8
  store ptr %0, ptr %2, align 8
  %3 = load ptr, ptr %2, align 8
  %4 = getelementptr inbounds %class.QByteArray, ptr %3, i32 0, i32 0
  call void @_ZN17QArrayDataPointerIcEC2Ev(ptr noundef nonnull align 8 dereferenceable(24) %4) #8
  ret void
}

; Function Attrs: mustprogress uwtable
define void @_ZN16FunnelStatisticsC2EP7QObjectR11CaptureFile(ptr noundef nonnull align 8 dereferenceable(88) %0, ptr noundef %1, ptr noundef nonnull align 8 dereferenceable(48) %2) unnamed_addr #0 align 2 personality ptr @__gxx_personality_v0 {
  %4 = alloca ptr, align 8
  %5 = alloca ptr, align 8
  %6 = alloca ptr, align 8
  %7 = alloca ptr, align 8
  %8 = alloca i32, align 4
  store ptr %0, ptr %4, align 8
  store ptr %1, ptr %5, align 8
  store ptr %2, ptr %6, align 8
  %9 = load ptr, ptr %4, align 8
  %10 = load ptr, ptr %5, align 8
  call void @_ZN7QObjectC2EPS_(ptr noundef nonnull align 8 dereferenceable(16) %9, ptr noundef %10)
  store ptr getelementptr inbounds ({ [14 x ptr] }, ptr @_ZTV16FunnelStatistics, i32 0, i32 0, i32 2), ptr %9, align 8
  %11 = getelementptr inbounds %class.FunnelStatistics, ptr %9, i32 0, i32 3
  %12 = load ptr, ptr %6, align 8
  store ptr %12, ptr %11, align 8
  %13 = getelementptr inbounds %class.FunnelStatistics, ptr %9, i32 0, i32 4
  call void @_ZN10QByteArrayC2Ev(ptr noundef nonnull align 8 dereferenceable(24) %13) #8
  %14 = getelementptr inbounds %class.FunnelStatistics, ptr %9, i32 0, i32 5
  call void @_ZN7QStringC2Ev(ptr noundef nonnull align 8 dereferenceable(24) %14) #8
  %15 = invoke noalias noundef nonnull ptr @_Znwm(i64 noundef 232) #20
          to label %16 unwind label %118

16:                                               ; preds = %3
  %17 = getelementptr inbounds %class.FunnelStatistics, ptr %9, i32 0, i32 1
  store ptr %15, ptr %17, align 8
  %18 = getelementptr inbounds %class.FunnelStatistics, ptr %9, i32 0, i32 1
  %19 = load ptr, ptr %18, align 8
  call void @llvm.memset.p0.i64(ptr align 8 %19, i8 0, i64 232, i1 false)
  %20 = invoke noalias noundef nonnull ptr @_Znwm(i64 noundef 8) #20
          to label %21 unwind label %118

21:                                               ; preds = %16
  %22 = getelementptr inbounds %class.FunnelStatistics, ptr %9, i32 0, i32 2
  store ptr %20, ptr %22, align 8
  %23 = getelementptr inbounds %class.FunnelStatistics, ptr %9, i32 0, i32 2
  %24 = load ptr, ptr %23, align 8
  %25 = getelementptr inbounds %struct._funnel_ops_id_t, ptr %24, i32 0, i32 0
  store ptr %9, ptr %25, align 8
  %26 = getelementptr inbounds %class.FunnelStatistics, ptr %9, i32 0, i32 2
  %27 = load ptr, ptr %26, align 8
  %28 = getelementptr inbounds %class.FunnelStatistics, ptr %9, i32 0, i32 1
  %29 = load ptr, ptr %28, align 8
  %30 = getelementptr inbounds %struct._funnel_ops_t, ptr %29, i32 0, i32 0
  store ptr %27, ptr %30, align 8
  %31 = getelementptr inbounds %class.FunnelStatistics, ptr %9, i32 0, i32 1
  %32 = load ptr, ptr %31, align 8
  %33 = getelementptr inbounds %struct._funnel_ops_t, ptr %32, i32 0, i32 1
  store ptr @_ZL15text_window_newP16_funnel_ops_id_tPKc, ptr %33, align 8
  %34 = getelementptr inbounds %class.FunnelStatistics, ptr %9, i32 0, i32 1
  %35 = load ptr, ptr %34, align 8
  %36 = getelementptr inbounds %struct._funnel_ops_t, ptr %35, i32 0, i32 2
  store ptr @text_window_set_text, ptr %36, align 8
  %37 = getelementptr inbounds %class.FunnelStatistics, ptr %9, i32 0, i32 1
  %38 = load ptr, ptr %37, align 8
  %39 = getelementptr inbounds %struct._funnel_ops_t, ptr %38, i32 0, i32 3
  store ptr @text_window_append, ptr %39, align 8
  %40 = getelementptr inbounds %class.FunnelStatistics, ptr %9, i32 0, i32 1
  %41 = load ptr, ptr %40, align 8
  %42 = getelementptr inbounds %struct._funnel_ops_t, ptr %41, i32 0, i32 4
  store ptr @text_window_prepend, ptr %42, align 8
  %43 = getelementptr inbounds %class.FunnelStatistics, ptr %9, i32 0, i32 1
  %44 = load ptr, ptr %43, align 8
  %45 = getelementptr inbounds %struct._funnel_ops_t, ptr %44, i32 0, i32 5
  store ptr @text_window_clear, ptr %45, align 8
  %46 = getelementptr inbounds %class.FunnelStatistics, ptr %9, i32 0, i32 1
  %47 = load ptr, ptr %46, align 8
  %48 = getelementptr inbounds %struct._funnel_ops_t, ptr %47, i32 0, i32 6
  store ptr @text_window_get_text, ptr %48, align 8
  %49 = getelementptr inbounds %class.FunnelStatistics, ptr %9, i32 0, i32 1
  %50 = load ptr, ptr %49, align 8
  %51 = getelementptr inbounds %struct._funnel_ops_t, ptr %50, i32 0, i32 7
  store ptr @text_window_set_close_cb, ptr %51, align 8
  %52 = getelementptr inbounds %class.FunnelStatistics, ptr %9, i32 0, i32 1
  %53 = load ptr, ptr %52, align 8
  %54 = getelementptr inbounds %struct._funnel_ops_t, ptr %53, i32 0, i32 8
  store ptr @text_window_set_editable, ptr %54, align 8
  %55 = getelementptr inbounds %class.FunnelStatistics, ptr %9, i32 0, i32 1
  %56 = load ptr, ptr %55, align 8
  %57 = getelementptr inbounds %struct._funnel_ops_t, ptr %56, i32 0, i32 9
  store ptr @text_window_destroy, ptr %57, align 8
  %58 = getelementptr inbounds %class.FunnelStatistics, ptr %9, i32 0, i32 1
  %59 = load ptr, ptr %58, align 8
  %60 = getelementptr inbounds %struct._funnel_ops_t, ptr %59, i32 0, i32 10
  store ptr @text_window_add_button, ptr %60, align 8
  %61 = getelementptr inbounds %class.FunnelStatistics, ptr %9, i32 0, i32 1
  %62 = load ptr, ptr %61, align 8
  %63 = getelementptr inbounds %struct._funnel_ops_t, ptr %62, i32 0, i32 11
  store ptr @_ZL17string_dialog_newP16_funnel_ops_id_tPKcPS2_S3_PFvPPcPvES6_PFvS6_E, ptr %63, align 8
  %64 = getelementptr inbounds %class.FunnelStatistics, ptr %9, i32 0, i32 1
  %65 = load ptr, ptr %64, align 8
  %66 = getelementptr inbounds %struct._funnel_ops_t, ptr %65, i32 0, i32 12
  store ptr @string_dialogs_close, ptr %66, align 8
  %67 = getelementptr inbounds %class.FunnelStatistics, ptr %9, i32 0, i32 1
  %68 = load ptr, ptr %67, align 8
  %69 = getelementptr inbounds %struct._funnel_ops_t, ptr %68, i32 0, i32 13
  store ptr @_ZL31funnel_statistics_retap_packetsP16_funnel_ops_id_t, ptr %69, align 8
  %70 = getelementptr inbounds %class.FunnelStatistics, ptr %9, i32 0, i32 1
  %71 = load ptr, ptr %70, align 8
  %72 = getelementptr inbounds %struct._funnel_ops_t, ptr %71, i32 0, i32 14
  store ptr @_ZL35funnel_statistics_copy_to_clipboardP8_GString, ptr %72, align 8
  %73 = getelementptr inbounds %class.FunnelStatistics, ptr %9, i32 0, i32 1
  %74 = load ptr, ptr %73, align 8
  %75 = getelementptr inbounds %struct._funnel_ops_t, ptr %74, i32 0, i32 15
  store ptr @_ZL28funnel_statistics_get_filterP16_funnel_ops_id_t, ptr %75, align 8
  %76 = getelementptr inbounds %class.FunnelStatistics, ptr %9, i32 0, i32 1
  %77 = load ptr, ptr %76, align 8
  %78 = getelementptr inbounds %struct._funnel_ops_t, ptr %77, i32 0, i32 16
  store ptr @_ZL28funnel_statistics_set_filterP16_funnel_ops_id_tPKc, ptr %78, align 8
  %79 = getelementptr inbounds %class.FunnelStatistics, ptr %9, i32 0, i32 1
  %80 = load ptr, ptr %79, align 8
  %81 = getelementptr inbounds %struct._funnel_ops_t, ptr %80, i32 0, i32 17
  store ptr @_ZL39funnel_statistics_get_color_filter_sloth, ptr %81, align 8
  %82 = getelementptr inbounds %class.FunnelStatistics, ptr %9, i32 0, i32 1
  %83 = load ptr, ptr %82, align 8
  %84 = getelementptr inbounds %struct._funnel_ops_t, ptr %83, i32 0, i32 18
  store ptr @_ZL39funnel_statistics_set_color_filter_slothPKc, ptr %84, align 8
  %85 = getelementptr inbounds %class.FunnelStatistics, ptr %9, i32 0, i32 1
  %86 = load ptr, ptr %85, align 8
  %87 = getelementptr inbounds %struct._funnel_ops_t, ptr %86, i32 0, i32 19
  store ptr @_ZL27funnel_statistics_open_fileP16_funnel_ops_id_tPKcS2_PPc, ptr %87, align 8
  %88 = getelementptr inbounds %class.FunnelStatistics, ptr %9, i32 0, i32 1
  %89 = load ptr, ptr %88, align 8
  %90 = getelementptr inbounds %struct._funnel_ops_t, ptr %89, i32 0, i32 20
  store ptr @_ZL32funnel_statistics_reload_packetsP16_funnel_ops_id_t, ptr %90, align 8
  %91 = getelementptr inbounds %class.FunnelStatistics, ptr %9, i32 0, i32 1
  %92 = load ptr, ptr %91, align 8
  %93 = getelementptr inbounds %struct._funnel_ops_t, ptr %92, i32 0, i32 21
  store ptr @_ZL35funnel_statistics_redissect_packetsP16_funnel_ops_id_t, ptr %93, align 8
  %94 = getelementptr inbounds %class.FunnelStatistics, ptr %9, i32 0, i32 1
  %95 = load ptr, ptr %94, align 8
  %96 = getelementptr inbounds %struct._funnel_ops_t, ptr %95, i32 0, i32 22
  store ptr @_ZL36funnel_statistics_reload_lua_pluginsP16_funnel_ops_id_t, ptr %96, align 8
  %97 = getelementptr inbounds %class.FunnelStatistics, ptr %9, i32 0, i32 1
  %98 = load ptr, ptr %97, align 8
  %99 = getelementptr inbounds %struct._funnel_ops_t, ptr %98, i32 0, i32 23
  store ptr @_ZL30funnel_statistics_apply_filterP16_funnel_ops_id_t, ptr %99, align 8
  %100 = getelementptr inbounds %class.FunnelStatistics, ptr %9, i32 0, i32 1
  %101 = load ptr, ptr %100, align 8
  %102 = getelementptr inbounds %struct._funnel_ops_t, ptr %101, i32 0, i32 24
  store ptr @_ZL16browser_open_urlPKc, ptr %102, align 8
  %103 = getelementptr inbounds %class.FunnelStatistics, ptr %9, i32 0, i32 1
  %104 = load ptr, ptr %103, align 8
  %105 = getelementptr inbounds %struct._funnel_ops_t, ptr %104, i32 0, i32 25
  store ptr @_ZL22browser_open_data_filePKc, ptr %105, align 8
  %106 = getelementptr inbounds %class.FunnelStatistics, ptr %9, i32 0, i32 1
  %107 = load ptr, ptr %106, align 8
  %108 = getelementptr inbounds %struct._funnel_ops_t, ptr %107, i32 0, i32 26
  store ptr @_ZL19progress_window_newP16_funnel_ops_id_tPKcS2_iPi, ptr %108, align 8
  %109 = getelementptr inbounds %class.FunnelStatistics, ptr %9, i32 0, i32 1
  %110 = load ptr, ptr %109, align 8
  %111 = getelementptr inbounds %struct._funnel_ops_t, ptr %110, i32 0, i32 27
  store ptr @_ZL22progress_window_updateP7progdlgfPKc, ptr %111, align 8
  %112 = getelementptr inbounds %class.FunnelStatistics, ptr %9, i32 0, i32 1
  %113 = load ptr, ptr %112, align 8
  %114 = getelementptr inbounds %struct._funnel_ops_t, ptr %113, i32 0, i32 28
  store ptr @_ZL23progress_window_destroyP7progdlg, ptr %114, align 8
  %115 = getelementptr inbounds %class.FunnelStatistics, ptr %9, i32 0, i32 1
  %116 = load ptr, ptr %115, align 8
  invoke void @funnel_set_funnel_ops(ptr noundef %116)
          to label %117 unwind label %118

117:                                              ; preds = %21
  ret void

118:                                              ; preds = %21, %16, %3
  %119 = landingpad { ptr, i32 }
          cleanup
  %120 = extractvalue { ptr, i32 } %119, 0
  store ptr %120, ptr %7, align 8
  %121 = extractvalue { ptr, i32 } %119, 1
  store i32 %121, ptr %8, align 4
  call void @_ZN7QStringD2Ev(ptr noundef nonnull align 8 dereferenceable(24) %14) #8
  call void @_ZN10QByteArrayD2Ev(ptr noundef nonnull align 8 dereferenceable(24) %13) #8
  call void @_ZN7QObjectD2Ev(ptr noundef nonnull align 8 dereferenceable(16) %9) #8
  br label %122

122:                                              ; preds = %118
  %123 = load ptr, ptr %7, align 8
  %124 = load i32, ptr %8, align 4
  %125 = insertvalue { ptr, i32 } poison, ptr %123, 0
  %126 = insertvalue { ptr, i32 } %125, i32 %124, 1
  resume { ptr, i32 } %126
}