; Function Attrs: mustprogress uwtable
define void @_ZN16FunnelStatisticsC2EP7QObjectR11CaptureFile(ptr noundef nonnull align 8 dereferenceable(88) %0, ptr noundef %1, ptr noundef nonnull align 8 dereferenceable(48) %2) unnamed_addr #0 align 2 personality ptr @__gxx_personality_v0 {
  tail call void @_ZN7QObjectC2EPS_(ptr noundef nonnull align 8 dereferenceable(16) %0, ptr noundef %1)
  store ptr getelementptr inbounds ({ [14 x ptr] }, ptr @_ZTV16FunnelStatistics, i64 0, i32 0, i64 2), ptr %0, align 8
  %4 = getelementptr inbounds i8, ptr %0, i64 32
  store ptr %2, ptr %4, align 8
  %5 = getelementptr inbounds i8, ptr %0, i64 40
  tail call void @llvm.memset.p0.i64(ptr noundef nonnull align 8 dereferenceable(48) %5, i8 0, i64 48, i1 false)
  %6 = invoke noalias noundef nonnull dereferenceable(232) ptr @_Znwm(i64 noundef 232) #27
          to label %7 unwind label %41

7:                                                ; preds = %3
  %8 = getelementptr inbounds i8, ptr %0, i64 16
  store ptr %6, ptr %8, align 8
  tail call void @llvm.memset.p0.i64(ptr noundef nonnull align 8 dereferenceable(232) %6, i8 0, i64 232, i1 false)
  %9 = invoke noalias noundef nonnull dereferenceable(8) ptr @_Znwm(i64 noundef 8) #27
          to label %10 unwind label %41

10:                                               ; preds = %7
  %11 = getelementptr inbounds i8, ptr %0, i64 24
  store ptr %9, ptr %11, align 8
  store ptr %0, ptr %9, align 8
  store ptr %9, ptr %6, align 8
  %12 = getelementptr inbounds i8, ptr %6, i64 8
  store ptr @_ZL15text_window_newP16_funnel_ops_id_tPKc, ptr %12, align 8
  %13 = getelementptr inbounds i8, ptr %6, i64 16
  store ptr @text_window_set_text, ptr %13, align 8
  %14 = getelementptr inbounds i8, ptr %6, i64 24
  store ptr @text_window_append, ptr %14, align 8
  %15 = getelementptr inbounds i8, ptr %6, i64 32
  store ptr @text_window_prepend, ptr %15, align 8
  %16 = getelementptr inbounds i8, ptr %6, i64 40
  store ptr @text_window_clear, ptr %16, align 8
  %17 = getelementptr inbounds i8, ptr %6, i64 48
  store ptr @text_window_get_text, ptr %17, align 8
  %18 = getelementptr inbounds i8, ptr %6, i64 56
  store ptr @text_window_set_close_cb, ptr %18, align 8
  %19 = getelementptr inbounds i8, ptr %6, i64 64
  store ptr @text_window_set_editable, ptr %19, align 8
  %20 = getelementptr inbounds i8, ptr %6, i64 72
  store ptr @text_window_destroy, ptr %20, align 8
  %21 = getelementptr inbounds i8, ptr %6, i64 80
  store ptr @text_window_add_button, ptr %21, align 8
  %22 = getelementptr inbounds i8, ptr %6, i64 88
  store ptr @_ZL17string_dialog_newP16_funnel_ops_id_tPKcPS2_S3_PFvPPcPvES6_PFvS6_E, ptr %22, align 8
  %23 = getelementptr inbounds i8, ptr %6, i64 96
  store ptr @string_dialogs_close, ptr %23, align 8
  %24 = getelementptr inbounds i8, ptr %6, i64 104
  store ptr @_ZL31funnel_statistics_retap_packetsP16_funnel_ops_id_t, ptr %24, align 8
  %25 = getelementptr inbounds i8, ptr %6, i64 112
  store ptr @_ZL35funnel_statistics_copy_to_clipboardP8_GString, ptr %25, align 8
  %26 = getelementptr inbounds i8, ptr %6, i64 120
  store ptr @_ZL28funnel_statistics_get_filterP16_funnel_ops_id_t, ptr %26, align 8
  %27 = getelementptr inbounds i8, ptr %6, i64 128
  store ptr @_ZL28funnel_statistics_set_filterP16_funnel_ops_id_tPKc, ptr %27, align 8
  %28 = getelementptr inbounds i8, ptr %6, i64 136
  store ptr @_ZL39funnel_statistics_get_color_filter_sloth, ptr %28, align 8
  %29 = getelementptr inbounds i8, ptr %6, i64 144
  store ptr @_ZL39funnel_statistics_set_color_filter_slothPKc, ptr %29, align 8
  %30 = getelementptr inbounds i8, ptr %6, i64 152
  store ptr @_ZL27funnel_statistics_open_fileP16_funnel_ops_id_tPKcS2_PPc, ptr %30, align 8
  %31 = getelementptr inbounds i8, ptr %6, i64 160
  store ptr @_ZL32funnel_statistics_reload_packetsP16_funnel_ops_id_t, ptr %31, align 8
  %32 = getelementptr inbounds i8, ptr %6, i64 168
  store ptr @_ZL35funnel_statistics_redissect_packetsP16_funnel_ops_id_t, ptr %32, align 8
  %33 = getelementptr inbounds i8, ptr %6, i64 176
  store ptr @_ZL36funnel_statistics_reload_lua_pluginsP16_funnel_ops_id_t, ptr %33, align 8
  %34 = getelementptr inbounds i8, ptr %6, i64 184
  store ptr @_ZL30funnel_statistics_apply_filterP16_funnel_ops_id_t, ptr %34, align 8
  %35 = getelementptr inbounds i8, ptr %6, i64 192
  store ptr @_ZL16browser_open_urlPKc, ptr %35, align 8
  %36 = getelementptr inbounds i8, ptr %6, i64 200
  store ptr @_ZL22browser_open_data_filePKc, ptr %36, align 8
  %37 = getelementptr inbounds i8, ptr %6, i64 208
  store ptr @_ZL19progress_window_newP16_funnel_ops_id_tPKcS2_iPi, ptr %37, align 8
  %38 = getelementptr inbounds i8, ptr %6, i64 216
  store ptr @_ZL22progress_window_updateP7progdlgfPKc, ptr %38, align 8
  %39 = getelementptr inbounds i8, ptr %6, i64 224
  store ptr @_ZL23progress_window_destroyP7progdlg, ptr %39, align 8
  invoke void @funnel_set_funnel_ops(ptr noundef nonnull %6)
          to label %40 unwind label %41

40:                                               ; preds = %10
  ret void

41:                                               ; preds = %10, %7, %3
  %42 = landingpad { ptr, i32 }
          cleanup
  %43 = getelementptr inbounds i8, ptr %0, i64 64
  tail call void @_ZN7QStringD2Ev(ptr noundef nonnull align 8 dereferenceable(24) %43) #24
  tail call void @_ZN10QByteArrayD2Ev(ptr noundef nonnull align 8 dereferenceable(24) %5) #24
  tail call void @_ZN7QObjectD2Ev(ptr noundef nonnull align 8 dereferenceable(16) %0) #24
  resume { ptr, i32 } %42
}